target datalayout = "e-m:e-p270:32:32-p271:32:32-p272:64:64-i64:64-i128:128-f80:128-n8:16:32:64-S128"
target triple = "x86_64-unknown-linux-gnu"

%struct.QTailQLink = type { ptr, ptr }
%struct.CompareState = type { %struct.Object, ptr, ptr, ptr, ptr, %struct.CharBackend, %struct.CharBackend, %struct.CharBackend, %struct.CharBackend, %struct.SocketReadState, %struct.SocketReadState, %struct.SocketReadState, %struct.SendCo, %struct.SendCo, i8, i64, i32, %struct._GQueue, ptr, ptr, ptr, ptr, ptr, i32, %union.anon.0 }
%struct.Object = type { ptr, ptr, ptr, i32, ptr }
%struct.CharBackend = type { ptr, ptr, ptr, ptr, ptr, ptr, i32, i32 }
%struct.SocketReadState = type { i32, i8, i32, i32, i32, [69632 x i8], ptr }
%struct.SendCo = type { ptr, ptr, ptr, %struct._GQueue, i8, i8, i32 }
%struct._GQueue = type { ptr, ptr, i32 }
%union.anon.0 = type { %struct.QTailQLink }
%struct.SendEntry = type { i32, i32, ptr }

; Function Attrs: nounwind sspstrong uwtable
define internal void @_compare_chr_send(ptr noundef %opaque) #0 {
entry:
  %opaque.addr = alloca ptr, align 8
  %sendco = alloca ptr, align 8
  %s = alloca ptr, align 8
  %ret = alloca i32, align 4
  %entry2 = alloca ptr, align 8
  %len = alloca i32, align 4
  %entry46 = alloca ptr, align 8
  store ptr %opaque, ptr %opaque.addr, align 8
  %0 = load ptr, ptr %opaque.addr, align 8
  store ptr %0, ptr %sendco, align 8
  %1 = load ptr, ptr %sendco, align 8
  %s1 = getelementptr inbounds %struct.SendCo, ptr %1, i32 0, i32 1
  %2 = load ptr, ptr %s1, align 8
  store ptr %2, ptr %s, align 8
  store i32 0, ptr %ret, align 4
  br label %while.cond

while.cond:                                       ; preds = %do.end38, %entry
  %3 = load ptr, ptr %sendco, align 8
  %send_list = getelementptr inbounds %struct.SendCo, ptr %3, i32 0, i32 3
  %call = call i32 @g_queue_is_empty(ptr noundef %send_list)
  %tobool = icmp ne i32 %call, 0
  %lnot = xor i1 %tobool, true
  br i1 %lnot, label %while.body, label %while.end

while.body:                                       ; preds = %while.cond
  %4 = load ptr, ptr %sendco, align 8
  %send_list3 = getelementptr inbounds %struct.SendCo, ptr %4, i32 0, i32 3
  %call4 = call ptr @g_queue_pop_tail(ptr noundef %send_list3)
  store ptr %call4, ptr %entry2, align 8
  %5 = load ptr, ptr %entry2, align 8
  %size = getelementptr inbounds %struct.SendEntry, ptr %5, i32 0, i32 0
  %6 = load i32, ptr %size, align 8
  %call5 = call i32 @htonl(i32 noundef %6) #13
  store i32 %call5, ptr %len, align 4
  %7 = load ptr, ptr %sendco, align 8
  %chr = getelementptr inbounds %struct.SendCo, ptr %7, i32 0, i32 2
  %8 = load ptr, ptr %chr, align 8
  %call6 = call i32 @qemu_chr_fe_write_all(ptr noundef %8, ptr noundef %len, i32 noundef 4)
  store i32 %call6, ptr %ret, align 4
  %9 = load i32, ptr %ret, align 4
  %conv = sext i32 %9 to i64
  %cmp = icmp ne i64 %conv, 4
  br i1 %cmp, label %if.then, label %if.end

if.then:                                          ; preds = %while.body
  %10 = load ptr, ptr %entry2, align 8
  %buf = getelementptr inbounds %struct.SendEntry, ptr %10, i32 0, i32 2
  %11 = load ptr, ptr %buf, align 8
  call void @g_free(ptr noundef %11)
  br label %do.body

do.body:                                          ; preds = %if.then
  %12 = load ptr, ptr %entry2, align 8
  call void @g_slice_free1(i64 noundef 16, ptr noundef %12)
  br label %do.end

do.end:                                           ; preds = %do.body
  br label %err

if.end:                                           ; preds = %while.body
  %13 = load ptr, ptr %sendco, align 8
  %notify_remote_frame = getelementptr inbounds %struct.SendCo, ptr %13, i32 0, i32 4
  %14 = load i8, ptr %notify_remote_frame, align 8
  %tobool8 = trunc i8 %14 to i1
  br i1 %tobool8, label %if.end23, label %land.lhs.true

land.lhs.true:                                    ; preds = %if.end
  %15 = load ptr, ptr %s, align 8
  %vnet_hdr = getelementptr inbounds %struct.CompareState, ptr %15, i32 0, i32 14
  %16 = load i8, ptr %vnet_hdr, align 8
  %tobool9 = trunc i8 %16 to i1
  br i1 %tobool9, label %if.then11, label %if.end23

if.then11:                                        ; preds = %land.lhs.true
  %17 = load ptr, ptr %entry2, align 8
  %vnet_hdr_len = getelementptr inbounds %struct.SendEntry, ptr %17, i32 0, i32 1
  %18 = load i32, ptr %vnet_hdr_len, align 4
  %call12 = call i32 @htonl(i32 noundef %18) #13
  store i32 %call12, ptr %len, align 4
  %19 = load ptr, ptr %sendco, align 8
  %chr13 = getelementptr inbounds %struct.SendCo, ptr %19, i32 0, i32 2
  %20 = load ptr, ptr %chr13, align 8
  %call14 = call i32 @qemu_chr_fe_write_all(ptr noundef %20, ptr noundef %len, i32 noundef 4)
  store i32 %call14, ptr %ret, align 4
  %21 = load i32, ptr %ret, align 4
  %conv15 = sext i32 %21 to i64
  %cmp16 = icmp ne i64 %conv15, 4
  br i1 %cmp16, label %if.then18, label %if.end22

if.then18:                                        ; preds = %if.then11
  %22 = load ptr, ptr %entry2, align 8
  %buf19 = getelementptr inbounds %struct.SendEntry, ptr %22, i32 0, i32 2
  %23 = load ptr, ptr %buf19, align 8
  call void @g_free(ptr noundef %23)
  br label %do.body20

do.body20:                                        ; preds = %if.then18
  %24 = load ptr, ptr %entry2, align 8
  call void @g_slice_free1(i64 noundef 16, ptr noundef %24)
  br label %do.end21

do.end21:                                         ; preds = %do.body20
  br label %err

if.end22:                                         ; preds = %if.then11
  br label %if.end23

if.end23:                                         ; preds = %if.end22, %land.lhs.true, %if.end
  %25 = load ptr, ptr %sendco, align 8
  %chr24 = getelementptr inbounds %struct.SendCo, ptr %25, i32 0, i32 2
  %26 = load ptr, ptr %chr24, align 8
  %27 = load ptr, ptr %entry2, align 8
  %buf25 = getelementptr inbounds %struct.SendEntry, ptr %27, i32 0, i32 2
  %28 = load ptr, ptr %buf25, align 8
  %29 = load ptr, ptr %entry2, align 8
  %size26 = getelementptr inbounds %struct.SendEntry, ptr %29, i32 0, i32 0
  %30 = load i32, ptr %size26, align 8
  %call27 = call i32 @qemu_chr_fe_write_all(ptr noundef %26, ptr noundef %28, i32 noundef %30)
  store i32 %call27, ptr %ret, align 4
  %31 = load i32, ptr %ret, align 4
  %32 = load ptr, ptr %entry2, align 8
  %size28 = getelementptr inbounds %struct.SendEntry, ptr %32, i32 0, i32 0
  %33 = load i32, ptr %size28, align 8
  %cmp29 = icmp ne i32 %31, %33
  br i1 %cmp29, label %if.then31, label %if.end35

if.then31:                                        ; preds = %if.end23
  %34 = load ptr, ptr %entry2, align 8
  %buf32 = getelementptr inbounds %struct.SendEntry, ptr %34, i32 0, i32 2
  %35 = load ptr, ptr %buf32, align 8
  call void @g_free(ptr noundef %35)
  br label %do.body33

do.body33:                                        ; preds = %if.then31
  %36 = load ptr, ptr %entry2, align 8
  call void @g_slice_free1(i64 noundef 16, ptr noundef %36)
  br label %do.end34

do.end34:                                         ; preds = %do.body33
  br label %err

if.end35:                                         ; preds = %if.end23
  %37 = load ptr, ptr %entry2, align 8
  %buf36 = getelementptr inbounds %struct.SendEntry, ptr %37, i32 0, i32 2
  %38 = load ptr, ptr %buf36, align 8
  call void @g_free(ptr noundef %38)
  br label %do.body37

do.body37:                                        ; preds = %if.end35
  %39 = load ptr, ptr %entry2, align 8
  call void @g_slice_free1(i64 noundef 16, ptr noundef %39)
  br label %do.end38

do.end38:                                         ; preds = %do.body37
  br label %while.cond, !llvm.loop !18

while.end:                                        ; preds = %while.cond
  %40 = load ptr, ptr %sendco, align 8
  %ret39 = getelementptr inbounds %struct.SendCo, ptr %40, i32 0, i32 6
  store i32 0, ptr %ret39, align 4
  br label %out

err:                                              ; preds = %do.end34, %do.end21, %do.end
  br label %while.cond40

while.cond40:                                     ; preds = %do.end51, %err
  %41 = load ptr, ptr %sendco, align 8
  %send_list41 = getelementptr inbounds %struct.SendCo, ptr %41, i32 0, i32 3
  %call42 = call i32 @g_queue_is_empty(ptr noundef %send_list41)
  %tobool43 = icmp ne i32 %call42, 0
  %lnot44 = xor i1 %tobool43, true
  br i1 %lnot44, label %while.body45, label %while.end52

while.body45:                                     ; preds = %while.cond40
  %42 = load ptr, ptr %sendco, align 8
  %send_list47 = getelementptr inbounds %struct.SendCo, ptr %42, i32 0, i32 3
  %call48 = call ptr @g_queue_pop_tail(ptr noundef %send_list47)
  store ptr %call48, ptr %entry46, align 8
  %43 = load ptr, ptr %entry46, align 8
  %buf49 = getelementptr inbounds %struct.SendEntry, ptr %43, i32 0, i32 2
  %44 = load ptr, ptr %buf49, align 8
  call void @g_free(ptr noundef %44)
  br label %do.body50

do.body50:                                        ; preds = %while.body45
  %45 = load ptr, ptr %entry46, align 8
  call void @g_slice_free1(i64 noundef 16, ptr noundef %45)
  br label %do.end51

do.end51:                                         ; preds = %do.body50
  br label %while.cond40, !llvm.loop !19

while.end52:                                      ; preds = %while.cond40
  %46 = load i32, ptr %ret, align 4
  %cmp53 = icmp slt i32 %46, 0
  br i1 %cmp53, label %cond.true, label %cond.false

cond.true:                                        ; preds = %while.end52
  %47 = load i32, ptr %ret, align 4
  br label %cond.end

cond.false:                                       ; preds = %while.end52
  br label %cond.end

cond.end:                                         ; preds = %cond.false, %cond.true
  %cond = phi i32 [ %47, %cond.true ], [ -5, %cond.false ]
  %48 = load ptr, ptr %sendco, align 8
  %ret55 = getelementptr inbounds %struct.SendCo, ptr %48, i32 0, i32 6
  store i32 %cond, ptr %ret55, align 4
  br label %out

out:                                              ; preds = %cond.end, %while.end
  %49 = load ptr, ptr %sendco, align 8
  %co = getelementptr inbounds %struct.SendCo, ptr %49, i32 0, i32 0
  store ptr null, ptr %co, align 8
  %50 = load ptr, ptr %sendco, align 8
  %done = getelementptr inbounds %struct.SendCo, ptr %50, i32 0, i32 5
  store i8 1, ptr %done, align 1
  call void @aio_wait_kick()
  ret void
}