; Function Attrs: nounwind sspstrong uwtable
define internal void @_compare_chr_send(ptr noundef %opaque) #0 {
entry:
  %len = alloca i32, align 4
  %s1 = getelementptr inbounds nuw i8, ptr %opaque, i64 8
  %0 = load ptr, ptr %s1, align 8
  %send_list = getelementptr inbounds nuw i8, ptr %opaque, i64 24
  %call38 = tail call i32 @g_queue_is_empty(ptr noundef nonnull %send_list) #16
  %tobool.not39 = icmp eq i32 %call38, 0
  br i1 %tobool.not39, label %while.body.lr.ph, label %out

while.body.lr.ph:                                 ; preds = %entry
  %chr = getelementptr inbounds nuw i8, ptr %opaque, i64 16
  %notify_remote_frame = getelementptr inbounds nuw i8, ptr %opaque, i64 48
  %vnet_hdr = getelementptr inbounds nuw i8, ptr %0, i64 209400
  br label %while.body

while.body:                                       ; preds = %while.body.lr.ph, %if.end35
  %call4 = call ptr @g_queue_pop_tail(ptr noundef nonnull %send_list) #16
  %1 = load i32, ptr %call4, align 8
  %call5 = call i32 @htonl(i32 noundef %1) #19
  store i32 %call5, ptr %len, align 4
  %2 = load ptr, ptr %chr, align 8
  %call6 = call i32 @qemu_chr_fe_write_all(ptr noundef %2, ptr noundef nonnull %len, i32 noundef 4) #16
  %cmp.not = icmp eq i32 %call6, 4
  br i1 %cmp.not, label %if.end, label %if.then

if.then:                                          ; preds = %while.body
  %buf = getelementptr inbounds nuw i8, ptr %call4, i64 8
  br label %err

if.end:                                           ; preds = %while.body
  %3 = load i8, ptr %notify_remote_frame, align 8
  %tobool8 = trunc i8 %3 to i1
  br i1 %tobool8, label %if.end23, label %land.lhs.true

land.lhs.true:                                    ; preds = %if.end
  %4 = load i8, ptr %vnet_hdr, align 8
  %tobool9 = trunc i8 %4 to i1
  br i1 %tobool9, label %if.then11, label %if.end23

if.then11:                                        ; preds = %land.lhs.true
  %vnet_hdr_len = getelementptr inbounds nuw i8, ptr %call4, i64 4
  %5 = load i32, ptr %vnet_hdr_len, align 4
  %call12 = call i32 @htonl(i32 noundef %5) #19
  store i32 %call12, ptr %len, align 4
  %6 = load ptr, ptr %chr, align 8
  %call14 = call i32 @qemu_chr_fe_write_all(ptr noundef %6, ptr noundef nonnull %len, i32 noundef 4) #16
  %cmp16.not = icmp eq i32 %call14, 4
  br i1 %cmp16.not, label %if.end23, label %if.then18

if.then18:                                        ; preds = %if.then11
  %buf19 = getelementptr inbounds nuw i8, ptr %call4, i64 8
  br label %err

if.end23:                                         ; preds = %if.then11, %land.lhs.true, %if.end
  %7 = load ptr, ptr %chr, align 8
  %buf25 = getelementptr inbounds nuw i8, ptr %call4, i64 8
  %8 = load ptr, ptr %buf25, align 8
  %9 = load i32, ptr %call4, align 8
  %call27 = call i32 @qemu_chr_fe_write_all(ptr noundef %7, ptr noundef %8, i32 noundef %9) #16
  %10 = load i32, ptr %call4, align 8
  %cmp29.not = icmp eq i32 %call27, %10
  br i1 %cmp29.not, label %if.end35, label %err

if.end35:                                         ; preds = %if.end23
  %11 = load ptr, ptr %buf25, align 8
  call void @g_free(ptr noundef %11) #16
  call void @g_slice_free1(i64 noundef 16, ptr noundef nonnull %call4) #16
  %call = call i32 @g_queue_is_empty(ptr noundef nonnull %send_list) #16
  %tobool.not = icmp eq i32 %call, 0
  br i1 %tobool.not, label %while.body, label %out, !llvm.loop !17

err:                                              ; preds = %if.end23, %if.then18, %if.then
  %.sink.in = phi ptr [ %buf19, %if.then18 ], [ %buf, %if.then ], [ %buf25, %if.end23 ]
  %ret.0 = phi i32 [ %call14, %if.then18 ], [ %call6, %if.then ], [ %call27, %if.end23 ]
  %.sink = load ptr, ptr %.sink.in, align 8
  call void @g_free(ptr noundef %.sink) #16
  call void @g_slice_free1(i64 noundef 16, ptr noundef nonnull %call4) #16
  %call4240 = call i32 @g_queue_is_empty(ptr noundef nonnull %send_list) #16
  %tobool43.not41 = icmp eq i32 %call4240, 0
  br i1 %tobool43.not41, label %while.body45, label %while.end52

while.body45:                                     ; preds = %err, %while.body45
  %call48 = call ptr @g_queue_pop_tail(ptr noundef nonnull %send_list) #16
  %buf49 = getelementptr inbounds nuw i8, ptr %call48, i64 8
  %12 = load ptr, ptr %buf49, align 8
  call void @g_free(ptr noundef %12) #16
  call void @g_slice_free1(i64 noundef 16, ptr noundef %call48) #16
  %call42 = call i32 @g_queue_is_empty(ptr noundef nonnull %send_list) #16
  %tobool43.not = icmp eq i32 %call42, 0
  br i1 %tobool43.not, label %while.body45, label %while.end52, !llvm.loop !18

while.end52:                                      ; preds = %while.body45, %err
  %cmp53 = icmp slt i32 %ret.0, 0
  %cond = select i1 %cmp53, i32 %ret.0, i32 -5
  br label %out

out:                                              ; preds = %if.end35, %entry, %while.end52
  %cond.sink = phi i32 [ %cond, %while.end52 ], [ 0, %entry ], [ 0, %if.end35 ]
  %ret55 = getelementptr inbounds nuw i8, ptr %opaque, i64 52
  store i32 %cond.sink, ptr %ret55, align 4
  store ptr null, ptr %opaque, align 8
  %done = getelementptr inbounds nuw i8, ptr %opaque, i64 49
  store i8 1, ptr %done, align 1
  call void @aio_wait_kick() #16
  ret void
}